; Function Attrs: nounwind uwtable
define void @Gia_PolynAnalyzeXors(ptr noundef %0, i32 noundef %1) local_unnamed_addr #0 {
  %3 = tail call noalias dereferenceable_or_null(16) ptr @malloc(i64 noundef 16) #8
  %4 = getelementptr inbounds nuw i8, ptr %3, i64 4
  store i32 0, ptr %4, align 4
  store i32 100, ptr %3, align 8
  %5 = tail call noalias dereferenceable_or_null(400) ptr @malloc(i64 noundef 400) #8
  %6 = getelementptr inbounds nuw i8, ptr %3, i64 8
  store ptr %5, ptr %6, align 8
  %7 = getelementptr inbounds nuw i8, ptr %0, i64 40
  %8 = load ptr, ptr %7, align 8
  %9 = icmp eq ptr %8, null
  br i1 %9, label %15, label %.preheader

.preheader:                                       ; preds = %2
  %10 = getelementptr inbounds nuw i8, ptr %0, i64 72
  %11 = load ptr, ptr %10, align 8
  %12 = getelementptr i8, ptr %11, i64 4
  %.val23 = load i32, ptr %12, align 4
  %13 = icmp sgt i32 %.val23, 0
  br i1 %13, label %.lr.ph, label %.critedge

.lr.ph:                                           ; preds = %.preheader
  %14 = getelementptr i8, ptr %0, i64 32
  br label %16

15:                                               ; preds = %2
  %puts = tail call i32 @puts(ptr nonnull dereferenceable(1) @str)
  br label %36

16:                                               ; preds = %.lr.ph, %16
  %indvars.iv = phi i64 [ 0, %.lr.ph ], [ %indvars.iv.next, %16 ]
  %17 = phi ptr [ %11, %.lr.ph ], [ %29, %16 ]
  %.01724 = phi i32 [ 0, %.lr.ph ], [ %28, %16 ]
  %.val20 = load ptr, ptr %14, align 8
  %18 = getelementptr i8, ptr %17, i64 8
  %.val21.val = load ptr, ptr %18, align 8
  %19 = getelementptr inbounds nuw i32, ptr %.val21.val, i64 %indvars.iv
  %20 = load i32, ptr %19, align 4
  %21 = sext i32 %20 to i64
  %22 = getelementptr inbounds %struct.Gia_Obj_t_, ptr %.val20, i64 %21
  %.val3.i = load i64, ptr %22, align 4
  %23 = trunc i64 %.val3.i to i32
  %24 = and i32 %23, 536870911
  %25 = sub nsw i32 %20, %24
  store i32 0, ptr %4, align 4
  tail call void @Gia_ManIncrementTravId(ptr noundef nonnull %0) #9
  tail call void @Gia_PolynCollectXors_rec(ptr noundef nonnull %0, i32 noundef %25, ptr noundef nonnull %3)
  %.val18 = load i32, ptr %4, align 4
  %26 = trunc nuw nsw i64 %indvars.iv to i32
  %27 = tail call i32 (ptr, ...) @printf(ptr noundef nonnull dereferenceable(1) @.str.1, i32 noundef %26, i32 noundef %.val18)
  %.val19 = load i32, ptr %4, align 4
  %28 = add nsw i32 %.val19, %.01724
  %indvars.iv.next = add nuw nsw i64 %indvars.iv, 1
  %29 = load ptr, ptr %10, align 8
  %30 = getelementptr i8, ptr %29, i64 4
  %.val = load i32, ptr %30, align 4
  %31 = sext i32 %.val to i64
  %32 = icmp slt i64 %indvars.iv.next, %31
  br i1 %32, label %16, label %.critedge, !llvm.loop !7

.critedge:                                        ; preds = %16, %.preheader
  %.017.lcssa = phi i32 [ 0, %.preheader ], [ %28, %16 ]
  %33 = tail call i32 (ptr, ...) @printf(ptr noundef nonnull dereferenceable(1) @.str.2, i32 noundef %.017.lcssa)
  %34 = load ptr, ptr %6, align 8
  %.not.i = icmp eq ptr %34, null
  br i1 %.not.i, label %Vec_IntFree.exit, label %35

35:                                               ; preds = %.critedge
  tail call void @free(ptr noundef nonnull %34) #9
  br label %Vec_IntFree.exit

Vec_IntFree.exit:                                 ; preds = %.critedge, %35
  tail call void @free(ptr noundef nonnull %3) #9
  br label %36

36:                                               ; preds = %Vec_IntFree.exit, %15
  ret void
}